Certificate:
    Data:
        Version: 3 (0x2)
        Serial Number: 37 (0x25)
    Signature Algorithm: sha256WithRSAEncryption
        Issuer: C=US, ST=CA, L=San Francisco, O=Grandata, Inc., OU=BIGDATA, CN=Grandata, Inc. CA/name=EasyRSA/emailAddress=it@grandata.com
        Validity
            Not Before: Dec  6 19:11:00 2017 GMT
            Not After : Dec  4 19:11:00 2027 GMT
        Subject: C=US, ST=CA, L=San Francisco, O=Grandata, Inc., OU=BIGDATA, CN=francisco/name=EasyRSA/emailAddress=it@grandata.com
        Subject Public Key Info:
            Public Key Algorithm: rsaEncryption
                Public-Key: (2048 bit)
                Modulus:
                    00:b7:fe:aa:8a:03:82:c1:ca:94:f3:3c:d4:77:56:
                    26:b9:73:de:dd:b3:f7:bf:c9:ba:ed:ff:c1:eb:2c:
                    2e:4a:93:c6:94:c1:e3:89:5e:0a:27:09:97:e8:e0:
                    00:ef:e8:1d:fc:69:6a:49:ab:ec:bb:30:2f:40:13:
                    db:95:89:17:3e:7d:0d:28:c7:d6:a2:da:78:8c:a6:
                    12:4b:84:bf:6a:d6:e7:72:fe:41:89:9f:3c:77:2b:
                    2c:41:b0:ee:f3:28:86:a4:73:a5:4d:ef:4b:56:97:
                    75:2e:4f:62:8d:b1:79:c5:b0:04:58:93:72:d2:0c:
                    d6:34:47:b4:fb:2d:17:6d:86:36:b8:d8:9d:b1:f4:
                    6a:37:11:46:fb:52:ee:d1:af:3e:cc:e2:b9:e2:a0:
                    d4:3c:dd:9e:83:ca:39:19:2a:e6:df:ae:62:47:75:
                    3a:11:41:96:68:13:2b:65:6a:e7:60:88:d4:e0:7e:
                    22:80:e4:60:21:39:63:4c:79:91:7f:64:35:06:af:
                    25:09:4a:ae:c0:07:ee:5b:0b:68:23:92:f7:d4:b6:
                    c2:e8:5c:98:73:ec:87:07:6c:88:e5:5d:32:ae:3f:
                    98:59:d0:3d:79:a9:5b:76:e4:04:41:e1:ab:c9:28:
                    2d:67:e1:62:ea:57:45:e3:0c:f4:86:a3:60:71:a9:
                    a8:71
                Exponent: 65537 (0x10001)
        X509v3 extensions:
            X509v3 Basic Constraints: 
                CA:FALSE
            Netscape Comment: 
                Easy-RSA Generated Certificate
            X509v3 Subject Key Identifier: 
                7A:41:45:F8:06:DE:1A:9C:1C:F8:2E:72:25:F3:D0:0E:15:35:25:2F
            X509v3 Authority Key Identifier: 
                keyid:6A:F1:39:F0:B8:1E:0C:D5:A4:14:8F:9F:B5:3E:81:1C:58:3B:3F:7A
                DirName:/C=US/ST=CA/L=San Francisco/O=Grandata, Inc./OU=BIGDATA/CN=Grandata, Inc. CA/name=EasyRSA/emailAddress=it@grandata.com
                serial:E0:2F:63:D8:E5:77:EA:DE

            X509v3 Extended Key Usage: 
                TLS Web Client Authentication
            X509v3 Key Usage: 
                Digital Signature
            X509v3 Subject Alternative Name: 
                DNS:francisco
    Signature Algorithm: sha256WithRSAEncryption
         9b:be:f8:de:35:be:45:e4:90:cb:d2:5e:16:3b:26:26:fc:db:
         ac:b9:f8:5c:a4:d5:42:54:eb:79:f5:52:0c:96:b2:f8:32:58:
         52:82:6e:a8:c8:85:cc:da:0a:e8:11:f0:37:92:ba:04:c5:27:
         fe:df:6e:45:67:6f:80:dc:37:00:1e:03:cd:92:0c:dc:46:6f:
         83:84:b1:b2:29:e6:b9:4c:7d:19:81:a6:68:00:c2:62:db:49:
         22:c3:66:d3:31:be:c0:72:c8:3a:ee:f9:15:7d:6b:0f:87:d9:
         8f:06:f7:41:bf:e7:10:73:a5:a4:51:e0:d0:9a:05:9a:ba:8e:
         09:d3:12:ab:25:f4:43:a0:ab:7f:67:d9:a5:c4:e1:9c:46:2a:
         99:6d:3e:34:df:a3:5a:97:68:f0:62:3a:b0:88:c1:4a:1c:a8:
         40:c0:12:bc:77:c5:38:56:dd:7b:b3:27:d3:98:99:a3:26:5e:
         c2:b4:b3:e4:a9:e5:f3:ce:c1:fe:bd:db:3b:9c:e7:49:da:91:
         b6:11:3a:15:3c:b2:a4:7e:22:09:6e:42:9a:f1:6b:09:0b:64:
         a5:9a:72:6b:1d:41:e1:30:04:4d:77:4e:77:14:f7:b2:9d:34:
         d9:c2:2c:b2:4d:e4:51:bb:41:66:6c:6a:7c:93:4c:8d:35:00:
         3a:6d:7e:3a
-----BEGIN CERTIFICATE-----
MIIFRTCCBC2gAwIBAgIBJTANBgkqhkiG9w0BAQsFADCBqzELMAkGA1UEBhMCVVMx
CzAJBgNVBAgTAkNBMRYwFAYDVQQHEw1TYW4gRnJhbmNpc2NvMRcwFQYDVQQKEw5H
cmFuZGF0YSwgSW5jLjEQMA4GA1UECxMHQklHREFUQTEaMBgGA1UEAxMRR3JhbmRh
dGEsIEluYy4gQ0ExEDAOBgNVBCkTB0Vhc3lSU0ExHjAcBgkqhkiG9w0BCQEWD2l0
QGdyYW5kYXRhLmNvbTAeFw0xNzEyMDYxOTExMDBaFw0yNzEyMDQxOTExMDBaMIGj
MQswCQYDVQQGEwJVUzELMAkGA1UECBMCQ0ExFjAUBgNVBAcTDVNhbiBGcmFuY2lz
Y28xFzAVBgNVBAoTDkdyYW5kYXRhLCBJbmMuMRAwDgYDVQQLEwdCSUdEQVRBMRIw
EAYDVQQDEwlmcmFuY2lzY28xEDAOBgNVBCkTB0Vhc3lSU0ExHjAcBgkqhkiG9w0B
CQEWD2l0QGdyYW5kYXRhLmNvbTCCASIwDQYJKoZIhvcNAQEBBQADggEPADCCAQoC
ggEBALf+qooDgsHKlPM81HdWJrlz3t2z97/Juu3/wessLkqTxpTB44leCicJl+jg
AO/oHfxpakmr7LswL0AT25WJFz59DSjH1qLaeIymEkuEv2rW53L+QYmfPHcrLEGw
7vMohqRzpU3vS1aXdS5PYo2xecWwBFiTctIM1jRHtPstF22GNrjYnbH0ajcRRvtS
7tGvPsziueKg1DzdnoPKORkq5t+uYkd1OhFBlmgTK2Vq52CI1OB+IoDkYCE5Y0x5
kX9kNQavJQlKrsAH7lsLaCOS99S2wuhcmHPshwdsiOVdMq4/mFnQPXmpW3bkBEHh
q8koLWfhYupXReMM9IajYHGpqHECAwEAAaOCAXgwggF0MAkGA1UdEwQCMAAwLQYJ
YIZIAYb4QgENBCAWHkVhc3ktUlNBIEdlbmVyYXRlZCBDZXJ0aWZpY2F0ZTAdBgNV
HQ4EFgQUekFF+AbeGpwc+C5yJfPQDhU1JS8wgeAGA1UdIwSB2DCB1YAUavE58Lge
DNWkFI+ftT6BHFg7P3qhgbGkga4wgasxCzAJBgNVBAYTAlVTMQswCQYDVQQIEwJD
QTEWMBQGA1UEBxMNU2FuIEZyYW5jaXNjbzEXMBUGA1UEChMOR3JhbmRhdGEsIElu
Yy4xEDAOBgNVBAsTB0JJR0RBVEExGjAYBgNVBAMTEUdyYW5kYXRhLCBJbmMuIENB
MRAwDgYDVQQpEwdFYXN5UlNBMR4wHAYJKoZIhvcNAQkBFg9pdEBncmFuZGF0YS5j
b22CCQDgL2PY5Xfq3jATBgNVHSUEDDAKBggrBgEFBQcDAjALBgNVHQ8EBAMCB4Aw
FAYDVR0RBA0wC4IJZnJhbmNpc2NvMA0GCSqGSIb3DQEBCwUAA4IBAQCbvvjeNb5F
5JDL0l4WOyYm/NusufhcpNVCVOt59VIMlrL4MlhSgm6oyIXM2groEfA3kroExSf+
325FZ2+A3DcAHgPNkgzcRm+DhLGyKea5TH0ZgaZoAMJi20kiw2bTMb7Acsg67vkV
fWsPh9mPBvdBv+cQc6WkUeDQmgWauo4J0xKrJfRDoKt/Z9mlxOGcRiqZbT4036Na
l2jwYjqwiMFKHKhAwBK8d8U4Vt17syfTmJmjJl7CtLPkqeXzzsH+vds7nOdJ2pG2
EToVPLKkfiIJbkKa8WsJC2SlmnJrHUHhMARNd053FPeynTTZwiyyTeRRu0FmbGp8
k0yNNQA6bX46
-----END CERTIFICATE-----
